; Function Attrs: mustprogress uwtable
define void @_ZN7rocksdb24UnpredictableUniqueIdGen5ResetEv(ptr noundef nonnull writeonly align 64 captures(none) dereferenceable(40) %this) local_unnamed_addr #0 align 2 personality ptr @__gxx_personality_v0 {
entry:
  %a = alloca i64, align 8
  %b = alloca i64, align 8
  call void @_ZN7rocksdb19GenerateRawUniqueIdEPmS0_b(ptr noundef nonnull %a, ptr noundef nonnull %b, i1 noundef zeroext false)
  %0 = load i64, ptr %a, align 8
  store atomic i64 %0, ptr %this seq_cst, align 64
  %1 = load i64, ptr %b, align 8
  %arrayidx.i.i4 = getelementptr inbounds nuw i8, ptr %this, i64 8
  store atomic i64 %1, ptr %arrayidx.i.i4 seq_cst, align 8
  call void @_ZN7rocksdb19GenerateRawUniqueIdEPmS0_b(ptr noundef nonnull %a, ptr noundef nonnull %b, i1 noundef zeroext false)
  %2 = load i64, ptr %a, align 8
  %arrayidx.i.i.c = getelementptr inbounds nuw i8, ptr %this, i64 16
  store atomic i64 %2, ptr %arrayidx.i.i.c seq_cst, align 16
  %3 = load i64, ptr %b, align 8
  %arrayidx.i.i4.c = getelementptr inbounds nuw i8, ptr %this, i64 24
  store atomic i64 %3, ptr %arrayidx.i.i4.c seq_cst, align 8
  ret void
}